; Function Attrs: mustprogress uwtable
define void @_ZN5mem_t4dumpERSo(ptr noundef nonnull align 8 dereferenceable(64) %0, ptr noundef nonnull align 8 dereferenceable(8) %1) unnamed_addr #5 align 2 {
  %3 = alloca [4096 x i8], align 16
  %4 = alloca i64, align 8
  call void @llvm.lifetime.start.p0(i64 4096, ptr nonnull %3) #22
  call void @llvm.memset.p0.i64(ptr noundef nonnull align 16 dereferenceable(4096) %3, i8 0, i64 4096, i1 false)
  %5 = getelementptr inbounds nuw i8, ptr %0, i64 56
  %6 = load i64, ptr %5, align 8, !tbaa !29
  %.not = icmp eq i64 %6, 0
  br i1 %.not, label %._crit_edge, label %.lr.ph

.lr.ph:                                           ; preds = %2
  %7 = getelementptr inbounds nuw i8, ptr %0, i64 8
  %8 = getelementptr inbounds nuw i8, ptr %0, i64 24
  %9 = getelementptr inbounds nuw i8, ptr %0, i64 16
  br label %10

._crit_edge:                                      ; preds = %_ZNSt3mapImPcSt4lessImESaISt4pairIKmS0_EEE4findERS4_.exit.thread, %2
  call void @llvm.lifetime.end.p0(i64 4096, ptr nonnull %3) #22
  ret void

10:                                               ; preds = %.lr.ph, %_ZNSt3mapImPcSt4lessImESaISt4pairIKmS0_EEE4findERS4_.exit.thread
  %.07 = phi i64 [ 0, %.lr.ph ], [ %24, %_ZNSt3mapImPcSt4lessImESaISt4pairIKmS0_EEE4findERS4_.exit.thread ]
  call void @llvm.lifetime.start.p0(i64 8, ptr nonnull %4) #22
  %11 = lshr exact i64 %.07, 12
  store i64 %11, ptr %4, align 8, !tbaa !17
  %12 = load ptr, ptr %8, align 8, !tbaa !13
  %.not10.i.i.i = icmp eq ptr %12, null
  br i1 %.not10.i.i.i, label %_ZNSt3mapImPcSt4lessImESaISt4pairIKmS0_EEE4findERS4_.exit.thread, label %.lr.ph.i.i.i

.lr.ph.i.i.i:                                     ; preds = %10, %.lr.ph.i.i.i
  %.012.i.i.i = phi ptr [ %.1.i.i.i, %.lr.ph.i.i.i ], [ %12, %10 ]
  %.0811.i.i.i = phi ptr [ %.19.i.i.i, %.lr.ph.i.i.i ], [ %9, %10 ]
  %13 = getelementptr inbounds nuw i8, ptr %.012.i.i.i, i64 32
  %14 = load i64, ptr %13, align 8, !tbaa !17
  %15 = icmp ult i64 %14, %11
  %.19.i.i.i = select i1 %15, ptr %.0811.i.i.i, ptr %.012.i.i.i
  %.1.in.v.i.i.i = select i1 %15, i64 24, i64 16
  %.1.in.i.i.i = getelementptr inbounds nuw i8, ptr %.012.i.i.i, i64 %.1.in.v.i.i.i
  %.1.i.i.i = load ptr, ptr %.1.in.i.i.i, align 8, !tbaa !20
  %.not.i.i.i = icmp eq ptr %.1.i.i.i, null
  br i1 %.not.i.i.i, label %_ZNSt8_Rb_treeImSt4pairIKmPcESt10_Select1stIS3_ESt4lessImESaIS3_EE14_M_lower_boundEPSt13_Rb_tree_nodeIS3_EPSt18_Rb_tree_node_baseRS1_.exit.i.i, label %.lr.ph.i.i.i, !llvm.loop !42

_ZNSt8_Rb_treeImSt4pairIKmPcESt10_Select1stIS3_ESt4lessImESaIS3_EE14_M_lower_boundEPSt13_Rb_tree_nodeIS3_EPSt18_Rb_tree_node_baseRS1_.exit.i.i: ; preds = %.lr.ph.i.i.i
  %16 = icmp eq ptr %.19.i.i.i, %9
  br i1 %16, label %_ZNSt3mapImPcSt4lessImESaISt4pairIKmS0_EEE4findERS4_.exit.thread, label %_ZNSt3mapImPcSt4lessImESaISt4pairIKmS0_EEE4findERS4_.exit

_ZNSt3mapImPcSt4lessImESaISt4pairIKmS0_EEE4findERS4_.exit: ; preds = %_ZNSt8_Rb_treeImSt4pairIKmPcESt10_Select1stIS3_ESt4lessImESaIS3_EE14_M_lower_boundEPSt13_Rb_tree_nodeIS3_EPSt18_Rb_tree_node_baseRS1_.exit.i.i
  %17 = getelementptr inbounds nuw i8, ptr %.19.i.i.i, i64 32
  %18 = load i64, ptr %17, align 8, !tbaa !17
  %19 = icmp ult i64 %11, %18
  br i1 %19, label %_ZNSt3mapImPcSt4lessImESaISt4pairIKmS0_EEE4findERS4_.exit.thread, label %20

20:                                               ; preds = %_ZNSt3mapImPcSt4lessImESaISt4pairIKmS0_EEE4findERS4_.exit
  %21 = call noundef nonnull align 8 dereferenceable(8) ptr @_ZNSt3mapImPcSt4lessImESaISt4pairIKmS0_EEEixERS4_(ptr noundef nonnull align 8 dereferenceable(48) %7, ptr noundef nonnull align 8 dereferenceable(8) %4)
  %22 = load ptr, ptr %21, align 8, !tbaa !43
  br label %_ZNSt3mapImPcSt4lessImESaISt4pairIKmS0_EEE4findERS4_.exit.thread

_ZNSt3mapImPcSt4lessImESaISt4pairIKmS0_EEE4findERS4_.exit.thread: ; preds = %_ZNSt3mapImPcSt4lessImESaISt4pairIKmS0_EEE4findERS4_.exit, %_ZNSt8_Rb_treeImSt4pairIKmPcESt10_Select1stIS3_ESt4lessImESaIS3_EE14_M_lower_boundEPSt13_Rb_tree_nodeIS3_EPSt18_Rb_tree_node_baseRS1_.exit.i.i, %10, %20
  %.sink = phi ptr [ %22, %20 ], [ %3, %10 ], [ %3, %_ZNSt8_Rb_treeImSt4pairIKmPcESt10_Select1stIS3_ESt4lessImESaIS3_EE14_M_lower_boundEPSt13_Rb_tree_nodeIS3_EPSt18_Rb_tree_node_baseRS1_.exit.i.i ], [ %3, %_ZNSt3mapImPcSt4lessImESaISt4pairIKmS0_EEE4findERS4_.exit ]
  %23 = call noundef nonnull align 8 dereferenceable(8) ptr @_ZNSo5writeEPKcl(ptr noundef nonnull align 8 dereferenceable(8) %1, ptr noundef %.sink, i64 noundef 4096)
  call void @llvm.lifetime.end.p0(i64 8, ptr nonnull %4) #22
  %24 = add i64 %.07, 4096
  %25 = load i64, ptr %5, align 8, !tbaa !29
  %26 = icmp ult i64 %24, %25
  br i1 %26, label %10, label %._crit_edge, !llvm.loop !45
}